; ModuleID = 'source-C-CXX/11/1375.cpp'
source_filename = "source-C-CXX/11/1375.cpp"
target datalayout = "e-m:e-p270:32:32-p271:32:32-p272:64:64-i64:64-f80:128-n8:16:32:64-S128"
target triple = "x86_64-pc-linux-gnu"

%"class.std::ios_base::Init" = type { i8 }
%"class.std::basic_istream" = type { i32 (...)**, i64, %"class.std::basic_ios" }
%"class.std::basic_ios" = type { %"class.std::ios_base", %"class.std::basic_ostream"*, i8, i8, %"class.std::basic_streambuf"*, %"class.std::ctype"*, %"class.std::num_put"*, %"class.std::num_get"* }
%"class.std::ios_base" = type { i32 (...)**, i64, i64, i32, i32, i32, %"struct.std::ios_base::_Callback_list"*, %"struct.std::ios_base::_Words", [8 x %"struct.std::ios_base::_Words"], i32, %"struct.std::ios_base::_Words"*, %"class.std::locale" }
%"struct.std::ios_base::_Callback_list" = type { %"struct.std::ios_base::_Callback_list"*, void (i32, %"class.std::ios_base"*, i32)*, i32, i32 }
%"struct.std::ios_base::_Words" = type { i8*, i64 }
%"class.std::locale" = type { %"class.std::locale::_Impl"* }
%"class.std::locale::_Impl" = type { i32, %"class.std::locale::facet"**, i64, %"class.std::locale::facet"**, i8** }
%"class.std::locale::facet" = type <{ i32 (...)**, i32, [4 x i8] }>
%"class.std::basic_ostream" = type { i32 (...)**, %"class.std::basic_ios" }
%"class.std::basic_streambuf" = type { i32 (...)**, i8*, i8*, i8*, i8*, i8*, i8*, %"class.std::locale" }
%"class.std::ctype" = type <{ %"class.std::locale::facet.base", [4 x i8], %struct.__locale_struct*, i8, [7 x i8], i32*, i32*, i16*, i8, [256 x i8], [256 x i8], i8, [6 x i8] }>
%"class.std::locale::facet.base" = type <{ i32 (...)**, i32 }>
%struct.__locale_struct = type { [13 x %struct.__locale_data*], i16*, i32*, i32*, [13 x i8*] }
%struct.__locale_data = type opaque
%"class.std::num_put" = type { %"class.std::locale::facet.base", [4 x i8] }
%"class.std::num_get" = type { %"class.std::locale::facet.base", [4 x i8] }

@_ZStL8__ioinit = internal global %"class.std::ios_base::Init" zeroinitializer, align 1
@__dso_handle = external hidden global i8
@_ZSt3cin = external global %"class.std::basic_istream", align 8
@_ZSt4cout = external global %"class.std::basic_ostream", align 8
@llvm.global_ctors = appending global [1 x { i32, void ()*, i8* }] [{ i32, void ()*, i8* } { i32 65535, void ()* @_GLOBAL__sub_I_1375.cpp, i8* null }]

declare void @_ZNSt8ios_base4InitC1Ev(%"class.std::ios_base::Init"* nonnull align 1 dereferenceable(1)) unnamed_addr #0

; Function Attrs: nounwind
declare void @_ZNSt8ios_base4InitD1Ev(%"class.std::ios_base::Init"* nonnull align 1 dereferenceable(1)) unnamed_addr #1

; Function Attrs: nofree nounwind
declare i32 @__cxa_atexit(void (i8*)*, i8*, i8*) local_unnamed_addr #2

; Function Attrs: mustprogress norecurse sspstrong uwtable
define dso_local i32 @main() local_unnamed_addr #3 {
  %1 = alloca i32, align 4
  %2 = alloca [15 x i32], align 16
  %3 = bitcast i32* %1 to i8*
  call void @llvm.lifetime.start.p0i8(i64 4, i8* nonnull %3) #8
  %4 = call nonnull align 8 dereferenceable(16) %"class.std::basic_istream"* @_ZNSirsERi(%"class.std::basic_istream"* nonnull align 8 dereferenceable(16) @_ZSt3cin, i32* nonnull align 4 dereferenceable(4) %1)
  %5 = bitcast [15 x i32]* %2 to i8*
  %6 = load i32, i32* %1, align 4, !tbaa !5
  %7 = icmp eq i32 %6, -1
  br i1 %7, label %118, label %8

8:                                                ; preds = %0, %56
  %9 = phi i32 [ %61, %56 ], [ %6, %0 ]
  call void @llvm.lifetime.start.p0i8(i64 60, i8* nonnull %5) #8
  %10 = icmp eq i32 %9, 0
  br i1 %10, label %28, label %20

11:                                               ; preds = %20
  %12 = trunc i64 %24 to i32
  %13 = icmp eq i32 %12, 0
  br i1 %13, label %28, label %14

14:                                               ; preds = %11
  %15 = and i64 %24, 4294967295
  %16 = icmp ult i64 %15, 8
  %17 = and i64 %24, 7
  %18 = sub nsw i64 %15, %17
  %19 = icmp eq i64 %17, 0
  br label %63

20:                                               ; preds = %8, %20
  %21 = phi i64 [ %24, %20 ], [ 0, %8 ]
  %22 = phi i32 [ %26, %20 ], [ %9, %8 ]
  %23 = getelementptr inbounds [15 x i32], [15 x i32]* %2, i64 0, i64 %21
  store i32 %22, i32* %23, align 4, !tbaa !5
  %24 = add nuw i64 %21, 1
  %25 = call nonnull align 8 dereferenceable(16) %"class.std::basic_istream"* @_ZNSirsERi(%"class.std::basic_istream"* nonnull align 8 dereferenceable(16) @_ZSt3cin, i32* nonnull align 4 dereferenceable(4) %1)
  %26 = load i32, i32* %1, align 4, !tbaa !5
  %27 = icmp eq i32 %26, 0
  br i1 %27, label %11, label %20, !llvm.loop !9

28:                                               ; preds = %114, %8, %11
  %29 = phi i32 [ 0, %11 ], [ 0, %8 ], [ %115, %114 ]
  %30 = call nonnull align 8 dereferenceable(8) %"class.std::basic_ostream"* @_ZNSolsEi(%"class.std::basic_ostream"* nonnull align 8 dereferenceable(8) @_ZSt4cout, i32 %29)
  %31 = bitcast %"class.std::basic_ostream"* %30 to i8**
  %32 = load i8*, i8** %31, align 8, !tbaa !11
  %33 = getelementptr i8, i8* %32, i64 -24
  %34 = bitcast i8* %33 to i64*
  %35 = load i64, i64* %34, align 8
  %36 = bitcast %"class.std::basic_ostream"* %30 to i8*
  %37 = add nsw i64 %35, 240
  %38 = getelementptr inbounds i8, i8* %36, i64 %37
  %39 = bitcast i8* %38 to %"class.std::ctype"**
  %40 = load %"class.std::ctype"*, %"class.std::ctype"** %39, align 8, !tbaa !13
  %41 = icmp eq %"class.std::ctype"* %40, null
  br i1 %41, label %42, label %43

42:                                               ; preds = %28
  call void @_ZSt16__throw_bad_castv() #9
  unreachable

43:                                               ; preds = %28
  %44 = getelementptr inbounds %"class.std::ctype", %"class.std::ctype"* %40, i64 0, i32 8
  %45 = load i8, i8* %44, align 8, !tbaa !17
  %46 = icmp eq i8 %45, 0
  br i1 %46, label %50, label %47

47:                                               ; preds = %43
  %48 = getelementptr inbounds %"class.std::ctype", %"class.std::ctype"* %40, i64 0, i32 9, i64 10
  %49 = load i8, i8* %48, align 1, !tbaa !19
  br label %56

50:                                               ; preds = %43
  call void @_ZNKSt5ctypeIcE13_M_widen_initEv(%"class.std::ctype"* nonnull align 8 dereferenceable(570) %40)
  %51 = bitcast %"class.std::ctype"* %40 to i8 (%"class.std::ctype"*, i8)***
  %52 = load i8 (%"class.std::ctype"*, i8)**, i8 (%"class.std::ctype"*, i8)*** %51, align 8, !tbaa !11
  %53 = getelementptr inbounds i8 (%"class.std::ctype"*, i8)*, i8 (%"class.std::ctype"*, i8)** %52, i64 6
  %54 = load i8 (%"class.std::ctype"*, i8)*, i8 (%"class.std::ctype"*, i8)** %53, align 8
  %55 = call signext i8 %54(%"class.std::ctype"* nonnull align 8 dereferenceable(570) %40, i8 signext 10)
  br label %56

56:                                               ; preds = %47, %50
  %57 = phi i8 [ %49, %47 ], [ %55, %50 ]
  %58 = call nonnull align 8 dereferenceable(8) %"class.std::basic_ostream"* @_ZNSo3putEc(%"class.std::basic_ostream"* nonnull align 8 dereferenceable(8) %30, i8 signext %57)
  %59 = call nonnull align 8 dereferenceable(8) %"class.std::basic_ostream"* @_ZNSo5flushEv(%"class.std::basic_ostream"* nonnull align 8 dereferenceable(8) %58)
  %60 = call nonnull align 8 dereferenceable(16) %"class.std::basic_istream"* @_ZNSirsERi(%"class.std::basic_istream"* nonnull align 8 dereferenceable(16) @_ZSt3cin, i32* nonnull align 4 dereferenceable(4) %1)
  call void @llvm.lifetime.end.p0i8(i64 60, i8* nonnull %5) #8
  %61 = load i32, i32* %1, align 4, !tbaa !5
  %62 = icmp eq i32 %61, -1
  br i1 %62, label %118, label %8, !llvm.loop !20

63:                                               ; preds = %14, %114
  %64 = phi i64 [ 0, %14 ], [ %116, %114 ]
  %65 = phi i32 [ 0, %14 ], [ %115, %114 ]
  %66 = getelementptr inbounds [15 x i32], [15 x i32]* %2, i64 0, i64 %64
  %67 = load i32, i32* %66, align 4, !tbaa !5
  %68 = srem i32 %67, 2
  %69 = icmp eq i32 %68, 1
  br i1 %69, label %114, label %70

70:                                               ; preds = %63
  br i1 %16, label %100, label %71

71:                                               ; preds = %70
  %72 = insertelement <4 x i32> <i32 poison, i32 0, i32 0, i32 0>, i32 %65, i32 0
  %73 = insertelement <4 x i32> poison, i32 %67, i32 0
  %74 = shufflevector <4 x i32> %73, <4 x i32> poison, <4 x i32> zeroinitializer
  %75 = insertelement <4 x i32> poison, i32 %67, i32 0
  %76 = shufflevector <4 x i32> %75, <4 x i32> poison, <4 x i32> zeroinitializer
  br label %77

77:                                               ; preds = %77, %71
  %78 = phi i64 [ 0, %71 ], [ %95, %77 ]
  %79 = phi <4 x i32> [ %72, %71 ], [ %93, %77 ]
  %80 = phi <4 x i32> [ zeroinitializer, %71 ], [ %94, %77 ]
  %81 = getelementptr inbounds [15 x i32], [15 x i32]* %2, i64 0, i64 %78
  %82 = bitcast i32* %81 to <4 x i32>*
  %83 = load <4 x i32>, <4 x i32>* %82, align 16, !tbaa !5
  %84 = getelementptr inbounds i32, i32* %81, i64 4
  %85 = bitcast i32* %84 to <4 x i32>*
  %86 = load <4 x i32>, <4 x i32>* %85, align 16, !tbaa !5
  %87 = shl nsw <4 x i32> %83, <i32 1, i32 1, i32 1, i32 1>
  %88 = shl nsw <4 x i32> %86, <i32 1, i32 1, i32 1, i32 1>
  %89 = icmp eq <4 x i32> %74, %87
  %90 = icmp eq <4 x i32> %76, %88
  %91 = zext <4 x i1> %89 to <4 x i32>
  %92 = zext <4 x i1> %90 to <4 x i32>
  %93 = add <4 x i32> %79, %91
  %94 = add <4 x i32> %80, %92
  %95 = add nuw i64 %78, 8
  %96 = icmp eq i64 %95, %18
  br i1 %96, label %97, label %77, !llvm.loop !21

97:                                               ; preds = %77
  %98 = add <4 x i32> %94, %93
  %99 = call i32 @llvm.vector.reduce.add.v4i32(<4 x i32> %98)
  br i1 %19, label %114, label %100

100:                                              ; preds = %70, %97
  %101 = phi i64 [ 0, %70 ], [ %18, %97 ]
  %102 = phi i32 [ %65, %70 ], [ %99, %97 ]
  br label %103

103:                                              ; preds = %100, %103
  %104 = phi i64 [ %112, %103 ], [ %101, %100 ]
  %105 = phi i32 [ %111, %103 ], [ %102, %100 ]
  %106 = getelementptr inbounds [15 x i32], [15 x i32]* %2, i64 0, i64 %104
  %107 = load i32, i32* %106, align 4, !tbaa !5
  %108 = shl nsw i32 %107, 1
  %109 = icmp eq i32 %67, %108
  %110 = zext i1 %109 to i32
  %111 = add nsw i32 %105, %110
  %112 = add nuw nsw i64 %104, 1
  %113 = icmp eq i64 %112, %15
  br i1 %113, label %114, label %103, !llvm.loop !23

114:                                              ; preds = %103, %97, %63
  %115 = phi i32 [ %65, %63 ], [ %99, %97 ], [ %111, %103 ]
  %116 = add nuw nsw i64 %64, 1
  %117 = icmp eq i64 %116, %15
  br i1 %117, label %28, label %63, !llvm.loop !25

118:                                              ; preds = %56, %0
  call void @llvm.lifetime.end.p0i8(i64 4, i8* nonnull %3) #8
  ret i32 0
}

; Function Attrs: argmemonly mustprogress nofree nosync nounwind willreturn
declare void @llvm.lifetime.start.p0i8(i64 immarg, i8* nocapture) #4

declare nonnull align 8 dereferenceable(16) %"class.std::basic_istream"* @_ZNSirsERi(%"class.std::basic_istream"* nonnull align 8 dereferenceable(16), i32* nonnull align 4 dereferenceable(4)) local_unnamed_addr #0

; Function Attrs: argmemonly mustprogress nofree nosync nounwind willreturn
declare void @llvm.lifetime.end.p0i8(i64 immarg, i8* nocapture) #4

declare nonnull align 8 dereferenceable(8) %"class.std::basic_ostream"* @_ZNSolsEi(%"class.std::basic_ostream"* nonnull align 8 dereferenceable(8), i32) local_unnamed_addr #0

declare nonnull align 8 dereferenceable(8) %"class.std::basic_ostream"* @_ZNSo3putEc(%"class.std::basic_ostream"* nonnull align 8 dereferenceable(8), i8 signext) local_unnamed_addr #0

declare nonnull align 8 dereferenceable(8) %"class.std::basic_ostream"* @_ZNSo5flushEv(%"class.std::basic_ostream"* nonnull align 8 dereferenceable(8)) local_unnamed_addr #0

; Function Attrs: noreturn
declare void @_ZSt16__throw_bad_castv() local_unnamed_addr #5

declare void @_ZNKSt5ctypeIcE13_M_widen_initEv(%"class.std::ctype"* nonnull align 8 dereferenceable(570)) local_unnamed_addr #0

; Function Attrs: sspstrong uwtable
define internal void @_GLOBAL__sub_I_1375.cpp() #6 section ".text.startup" {
  tail call void @_ZNSt8ios_base4InitC1Ev(%"class.std::ios_base::Init"* nonnull align 1 dereferenceable(1) @_ZStL8__ioinit)
  %1 = tail call i32 @__cxa_atexit(void (i8*)* bitcast (void (%"class.std::ios_base::Init"*)* @_ZNSt8ios_base4InitD1Ev to void (i8*)*), i8* getelementptr inbounds (%"class.std::ios_base::Init", %"class.std::ios_base::Init"* @_ZStL8__ioinit, i64 0, i32 0), i8* nonnull @__dso_handle) #8
  ret void
}

; Function Attrs: nofree nosync nounwind readnone willreturn
declare i32 @llvm.vector.reduce.add.v4i32(<4 x i32>) #7


!llvm.module.flags = !{!0, !1, !2, !3}
!llvm.ident = !{!4}

!0 = !{i32 1, !"wchar_size", i32 4}
!1 = !{i32 7, !"PIC Level", i32 2}
!2 = !{i32 7, !"PIE Level", i32 2}
!3 = !{i32 7, !"uwtable", i32 1}
!4 = !{!"clang version 13.0.0"}
!5 = !{!6, !6, i64 0}
!6 = !{!"int", !7, i64 0}
!7 = !{!"omnipotent char", !8, i64 0}
!8 = !{!"Simple C++ TBAA"}
!9 = distinct !{!9, !10}
!10 = !{!"llvm.loop.mustprogress"}
!11 = !{!12, !12, i64 0}
!12 = !{!"vtable pointer", !8, i64 0}
!13 = !{!14, !15, i64 240}
!14 = !{!"_ZTSSt9basic_iosIcSt11char_traitsIcEE", !15, i64 216, !7, i64 224, !16, i64 225, !15, i64 232, !15, i64 240, !15, i64 248, !15, i64 256}
!15 = !{!"any pointer", !7, i64 0}
!16 = !{!"bool", !7, i64 0}
!17 = !{!18, !7, i64 56}
!18 = !{!"_ZTSSt5ctypeIcE", !15, i64 16, !16, i64 24, !15, i64 32, !15, i64 40, !15, i64 48, !7, i64 56, !7, i64 57, !7, i64 313, !7, i64 569}
!19 = !{!7, !7, i64 0}
!20 = distinct !{!20, !10}
!21 = distinct !{!21, !10, !22}
!22 = !{!"llvm.loop.isvectorized", i32 1}
!23 = distinct !{!23, !10, !24, !22}
!24 = !{!"llvm.loop.unroll.runtime.disable"}
!25 = distinct !{!25, !10}
